target datalayout = "e-m:e-p270:32:32-p271:32:32-p272:64:64-i64:64-i128:128-f80:128-n8:16:32:64-S128"
target triple = "x86_64-pc-linux-gnu"

%struct.optstruct = type { ptr, ptr, ptr, i64, i32, i32, i32, i32, ptr, ptr, ptr }
%struct.stat = type { i64, i64, i64, i32, i32, i32, i32, i64, i64, i64, i64, %struct.timespec, %struct.timespec, %struct.timespec, [3 x i64] }
%struct.timespec = type { i64, i64 }

@action = global ptr null, align 8
@.str = private unnamed_addr constant [5 x i8] c"move\00", align 1
@.str.1 = private unnamed_addr constant [5 x i8] c"copy\00", align 1
@actarget = internal global ptr null, align 8
@.str.2 = private unnamed_addr constant [44 x i8] c"action_setup: Failed to get realpath of %s\0A\00", align 1
@targlen = internal global i32 0, align 4
@.str.3 = private unnamed_addr constant [7 x i8] c"remove\00", align 1
@.str.4 = private unnamed_addr constant [42 x i8] c"'%s' doesn't exist or is not a directory\0A\00", align 1

; Function Attrs: nounwind uwtable
define internal i32 @isdir() #0 {
  %1 = alloca i32, align 4
  %2 = alloca %struct.stat, align 8
  %3 = load ptr, ptr @actarget, align 8
  %4 = call i32 @stat(ptr noundef %3, ptr noundef %2) #7
  %5 = icmp ne i32 %4, 0
  br i1 %5, label %11, label %6

6:                                                ; preds = %0
  %7 = getelementptr inbounds %struct.stat, ptr %2, i32 0, i32 3
  %8 = load i32, ptr %7, align 8
  %9 = and i32 %8, 61440
  %10 = icmp eq i32 %9, 16384
  br i1 %10, label %14, label %11

11:                                               ; preds = %6, %0
  %12 = load ptr, ptr @actarget, align 8
  %13 = call i32 (i32, ptr, ...) @logg(i32 noundef 5, ptr noundef @.str.4, ptr noundef %12)
  store i32 0, ptr %1, align 4
  br label %15

14:                                               ; preds = %6
  store i32 1, ptr %1, align 4
  br label %15

15:                                               ; preds = %14, %11
  %16 = load i32, ptr %1, align 4
  ret i32 %16
}

; Function Attrs: nounwind uwtable
define i32 @actsetup(ptr noundef %0) #0 {
  %2 = alloca i32, align 4
  %3 = alloca ptr, align 8
  %4 = alloca i32, align 4
  %5 = alloca i32, align 4
  store ptr %0, ptr %3, align 8
  %6 = load ptr, ptr %3, align 8
  %7 = call ptr @optget(ptr noundef %6, ptr noundef @.str)
  %8 = getelementptr inbounds %struct.optstruct, ptr %7, i32 0, i32 4
  %9 = load i32, ptr %8, align 8
  store i32 %9, ptr %4, align 4
  %10 = load i32, ptr %4, align 4
  %11 = icmp ne i32 %10, 0
  br i1 %11, label %18, label %12

12:                                               ; preds = %1
  %13 = load ptr, ptr %3, align 8
  %14 = call ptr @optget(ptr noundef %13, ptr noundef @.str.1)
  %15 = getelementptr inbounds %struct.optstruct, ptr %14, i32 0, i32 4
  %16 = load i32, ptr %15, align 8
  %17 = icmp ne i32 %16, 0
  br i1 %17, label %18, label %47

18:                                               ; preds = %12, %1
  %19 = load ptr, ptr %3, align 8
  %20 = load i32, ptr %4, align 4
  %21 = icmp ne i32 %20, 0
  %22 = select i1 %21, ptr @.str, ptr @.str.1
  %23 = call ptr @optget(ptr noundef %19, ptr noundef %22)
  %24 = getelementptr inbounds %struct.optstruct, ptr %23, i32 0, i32 2
  %25 = load ptr, ptr %24, align 8
  store ptr %25, ptr @actarget, align 8
  %26 = load ptr, ptr @actarget, align 8
  %27 = call i32 @cli_realpath(ptr noundef %26, ptr noundef @actarget)
  store i32 %27, ptr %5, align 4
  %28 = load i32, ptr %5, align 4
  %29 = icmp ne i32 0, %28
  br i1 %29, label %33, label %30

30:                                               ; preds = %18
  %31 = load ptr, ptr @actarget, align 8
  %32 = icmp eq ptr null, %31
  br i1 %32, label %33, label %36

33:                                               ; preds = %30, %18
  %34 = load ptr, ptr @actarget, align 8
  %35 = call i32 (i32, ptr, ...) @logg(i32 noundef 0, ptr noundef @.str.2, ptr noundef %34)
  store i32 0, ptr %2, align 4
  br label %56

36:                                               ; preds = %30
  %37 = call i32 @isdir()
  %38 = icmp ne i32 %37, 0
  br i1 %38, label %40, label %39

39:                                               ; preds = %36
  store i32 1, ptr %2, align 4
  br label %56

40:                                               ; preds = %36
  %41 = load i32, ptr %4, align 4
  %42 = icmp ne i32 %41, 0
  %43 = select i1 %42, ptr @action_move, ptr @action_copy
  store ptr %43, ptr @action, align 8
  %44 = load ptr, ptr @actarget, align 8
  %45 = call i64 @strlen(ptr noundef %44) #6
  %46 = trunc i64 %45 to i32
  store i32 %46, ptr @targlen, align 4
  br label %55

47:                                               ; preds = %12
  %48 = load ptr, ptr %3, align 8
  %49 = call ptr @optget(ptr noundef %48, ptr noundef @.str.3)
  %50 = getelementptr inbounds %struct.optstruct, ptr %49, i32 0, i32 4
  %51 = load i32, ptr %50, align 8
  %52 = icmp ne i32 %51, 0
  br i1 %52, label %53, label %54

53:                                               ; preds = %47
  store ptr @action_remove, ptr @action, align 8
  br label %54

54:                                               ; preds = %53, %47
  br label %55

55:                                               ; preds = %54, %40
  store i32 0, ptr %2, align 4
  br label %56

56:                                               ; preds = %55, %39, %33
  %57 = load i32, ptr %2, align 4
  ret i32 %57
}