; Function Attrs: nounwind uwtable
define noundef i32 @actsetup(ptr noundef %0) local_unnamed_addr #0 {
  %2 = alloca %struct.stat, align 8
  %3 = tail call ptr @optget(ptr noundef %0, ptr noundef nonnull @.str) #11
  %4 = getelementptr inbounds i8, ptr %3, i64 32
  %5 = load i32, ptr %4, align 8
  %.not = icmp eq i32 %5, 0
  br i1 %.not, label %6, label %10

6:                                                ; preds = %1
  %7 = tail call ptr @optget(ptr noundef %0, ptr noundef nonnull @.str.1) #11
  %8 = getelementptr inbounds i8, ptr %7, i64 32
  %9 = load i32, ptr %8, align 8
  %.not9 = icmp eq i32 %9, 0
  br i1 %.not9, label %35, label %10

10:                                               ; preds = %6, %1
  %11 = phi ptr [ @.str.1, %6 ], [ @.str, %1 ]
  %12 = tail call ptr @optget(ptr noundef %0, ptr noundef nonnull %11) #11
  %13 = getelementptr inbounds i8, ptr %12, i64 16
  %14 = load ptr, ptr %13, align 8
  store ptr %14, ptr @actarget, align 8
  %15 = tail call i32 @cli_realpath(ptr noundef %14, ptr noundef nonnull @actarget) #11
  %16 = icmp ne i32 %15, 0
  %17 = load ptr, ptr @actarget, align 8
  %18 = icmp eq ptr %17, null
  %or.cond = select i1 %16, i1 true, i1 %18
  br i1 %or.cond, label %19, label %21

19:                                               ; preds = %10
  %20 = tail call i32 (i32, ptr, ...) @logg(i32 noundef 0, ptr noundef nonnull @.str.2, ptr noundef %17) #11
  br label %40

21:                                               ; preds = %10
  call void @llvm.lifetime.start.p0(i64 144, ptr nonnull %2)
  %22 = call i32 @stat(ptr noundef nonnull %17, ptr noundef nonnull %2) #11
  %.not.i = icmp eq i32 %22, 0
  br i1 %.not.i, label %23, label %isdir.exit.thread

23:                                               ; preds = %21
  %24 = getelementptr inbounds i8, ptr %2, i64 24
  %25 = load i32, ptr %24, align 8
  %26 = and i32 %25, 61440
  %27 = icmp eq i32 %26, 16384
  br i1 %27, label %30, label %isdir.exit.thread

isdir.exit.thread:                                ; preds = %21, %23
  %28 = load ptr, ptr @actarget, align 8
  %29 = tail call i32 (i32, ptr, ...) @logg(i32 noundef 5, ptr noundef nonnull @.str.4, ptr noundef %28) #11
  call void @llvm.lifetime.end.p0(i64 144, ptr nonnull %2)
  br label %40

30:                                               ; preds = %23
  call void @llvm.lifetime.end.p0(i64 144, ptr nonnull %2)
  %31 = select i1 %.not, ptr @action_copy, ptr @action_move
  store ptr %31, ptr @action, align 8
  %32 = load ptr, ptr @actarget, align 8
  %33 = tail call i64 @strlen(ptr noundef nonnull dereferenceable(1) %32) #12
  %34 = trunc i64 %33 to i32
  store i32 %34, ptr @targlen, align 4
  br label %40

35:                                               ; preds = %6
  %36 = tail call ptr @optget(ptr noundef %0, ptr noundef nonnull @.str.3) #11
  %37 = getelementptr inbounds i8, ptr %36, i64 32
  %38 = load i32, ptr %37, align 8
  %.not10 = icmp eq i32 %38, 0
  br i1 %.not10, label %40, label %39

39:                                               ; preds = %35
  store ptr @action_remove, ptr @action, align 8
  br label %40

40:                                               ; preds = %isdir.exit.thread, %30, %39, %35, %19
  %.0 = phi i32 [ 0, %19 ], [ 0, %35 ], [ 0, %39 ], [ 0, %30 ], [ 1, %isdir.exit.thread ]
  ret i32 %.0
}